target datalayout = "e-m:e-p270:32:32-p271:32:32-p272:64:64-i64:64-i128:128-f80:128-n8:16:32:64-S128"
target triple = "x86_64-pc-linux-gnu"

%"class.pkpy::unique_ptr_128" = type { ptr }
%"struct.pkpy::Expr.base" = type <{ ptr, i32 }>
%"struct.pkpy::Expr" = type <{ ptr, i32, [4 x i8] }>
%"struct.pkpy::SliceExpr" = type { %"struct.pkpy::Expr.base", %"class.pkpy::unique_ptr_128", %"class.pkpy::unique_ptr_128", %"class.pkpy::unique_ptr_128" }

; Function Attrs: mustprogress nounwind uwtable
define linkonce_odr noundef ptr @_ZNK4pkpy14unique_ptr_128INS_4ExprEEptEv(ptr noundef nonnull align 8 dereferenceable(8) %0) #5 comdat align 2 {
  %2 = alloca ptr, align 8
  store ptr %0, ptr %2, align 8
  %3 = load ptr, ptr %2, align 8
  %4 = getelementptr inbounds %"class.pkpy::unique_ptr_128", ptr %3, i32 0, i32 0
  %5 = load ptr, ptr %4, align 8
  ret ptr %5
}

; Function Attrs: mustprogress nounwind uwtable
define linkonce_odr noundef zeroext i1 @_ZNK4pkpy14unique_ptr_128INS_4ExprEEcvbEv(ptr noundef nonnull align 8 dereferenceable(8) %0) #5 comdat align 2 {
  %2 = alloca ptr, align 8
  store ptr %0, ptr %2, align 8
  %3 = load ptr, ptr %2, align 8
  %4 = getelementptr inbounds %"class.pkpy::unique_ptr_128", ptr %3, i32 0, i32 0
  %5 = load ptr, ptr %4, align 8
  %6 = icmp ne ptr %5, null
  ret i1 %6
}

; Function Attrs: mustprogress uwtable
define void @_ZN4pkpy9SliceExpr5emit_EPNS_15CodeEmitContextE(ptr noundef nonnull align 8 dereferenceable(40) %0, ptr noundef %1) unnamed_addr #4 align 2 {
  %3 = alloca ptr, align 8
  %4 = alloca ptr, align 8
  store ptr %0, ptr %3, align 8
  store ptr %1, ptr %4, align 8
  %5 = load ptr, ptr %3, align 8
  %6 = getelementptr inbounds %"struct.pkpy::SliceExpr", ptr %5, i32 0, i32 1
  %7 = call noundef zeroext i1 @_ZNK4pkpy14unique_ptr_128INS_4ExprEEcvbEv(ptr noundef nonnull align 8 dereferenceable(8) %6)
  br i1 %7, label %8, label %15

8:                                                ; preds = %2
  %9 = getelementptr inbounds %"struct.pkpy::SliceExpr", ptr %5, i32 0, i32 1
  %10 = call noundef ptr @_ZNK4pkpy14unique_ptr_128INS_4ExprEEptEv(ptr noundef nonnull align 8 dereferenceable(8) %9)
  %11 = load ptr, ptr %4, align 8
  %12 = load ptr, ptr %10, align 8
  %13 = getelementptr inbounds ptr, ptr %12, i64 2
  %14 = load ptr, ptr %13, align 8
  call void %14(ptr noundef nonnull align 8 dereferenceable(12) %10, ptr noundef %11)
  br label %20

15:                                               ; preds = %2
  %16 = load ptr, ptr %4, align 8
  %17 = getelementptr inbounds %"struct.pkpy::Expr", ptr %5, i32 0, i32 1
  %18 = load i32, ptr %17, align 8
  %19 = call noundef i32 @_ZN4pkpy15CodeEmitContext5emit_ENS_6OpcodeEtib(ptr noundef nonnull align 8 dereferenceable(232) %16, i8 noundef zeroext 7, i16 noundef zeroext 0, i32 noundef %18, i1 noundef zeroext false)
  br label %20

20:                                               ; preds = %15, %8
  %21 = getelementptr inbounds %"struct.pkpy::SliceExpr", ptr %5, i32 0, i32 2
  %22 = call noundef zeroext i1 @_ZNK4pkpy14unique_ptr_128INS_4ExprEEcvbEv(ptr noundef nonnull align 8 dereferenceable(8) %21)
  br i1 %22, label %23, label %30

23:                                               ; preds = %20
  %24 = getelementptr inbounds %"struct.pkpy::SliceExpr", ptr %5, i32 0, i32 2
  %25 = call noundef ptr @_ZNK4pkpy14unique_ptr_128INS_4ExprEEptEv(ptr noundef nonnull align 8 dereferenceable(8) %24)
  %26 = load ptr, ptr %4, align 8
  %27 = load ptr, ptr %25, align 8
  %28 = getelementptr inbounds ptr, ptr %27, i64 2
  %29 = load ptr, ptr %28, align 8
  call void %29(ptr noundef nonnull align 8 dereferenceable(12) %25, ptr noundef %26)
  br label %35

30:                                               ; preds = %20
  %31 = load ptr, ptr %4, align 8
  %32 = getelementptr inbounds %"struct.pkpy::Expr", ptr %5, i32 0, i32 1
  %33 = load i32, ptr %32, align 8
  %34 = call noundef i32 @_ZN4pkpy15CodeEmitContext5emit_ENS_6OpcodeEtib(ptr noundef nonnull align 8 dereferenceable(232) %31, i8 noundef zeroext 7, i16 noundef zeroext 0, i32 noundef %33, i1 noundef zeroext false)
  br label %35

35:                                               ; preds = %30, %23
  %36 = getelementptr inbounds %"struct.pkpy::SliceExpr", ptr %5, i32 0, i32 3
  %37 = call noundef zeroext i1 @_ZNK4pkpy14unique_ptr_128INS_4ExprEEcvbEv(ptr noundef nonnull align 8 dereferenceable(8) %36)
  br i1 %37, label %38, label %45

38:                                               ; preds = %35
  %39 = getelementptr inbounds %"struct.pkpy::SliceExpr", ptr %5, i32 0, i32 3
  %40 = call noundef ptr @_ZNK4pkpy14unique_ptr_128INS_4ExprEEptEv(ptr noundef nonnull align 8 dereferenceable(8) %39)
  %41 = load ptr, ptr %4, align 8
  %42 = load ptr, ptr %40, align 8
  %43 = getelementptr inbounds ptr, ptr %42, i64 2
  %44 = load ptr, ptr %43, align 8
  call void %44(ptr noundef nonnull align 8 dereferenceable(12) %40, ptr noundef %41)
  br label %50

45:                                               ; preds = %35
  %46 = load ptr, ptr %4, align 8
  %47 = getelementptr inbounds %"struct.pkpy::Expr", ptr %5, i32 0, i32 1
  %48 = load i32, ptr %47, align 8
  %49 = call noundef i32 @_ZN4pkpy15CodeEmitContext5emit_ENS_6OpcodeEtib(ptr noundef nonnull align 8 dereferenceable(232) %46, i8 noundef zeroext 7, i16 noundef zeroext 0, i32 noundef %48, i1 noundef zeroext false)
  br label %50

50:                                               ; preds = %45, %38
  %51 = load ptr, ptr %4, align 8
  %52 = getelementptr inbounds %"struct.pkpy::Expr", ptr %5, i32 0, i32 1
  %53 = load i32, ptr %52, align 8
  %54 = call noundef i32 @_ZN4pkpy15CodeEmitContext5emit_ENS_6OpcodeEtib(ptr noundef nonnull align 8 dereferenceable(232) %51, i8 noundef zeroext 42, i16 noundef zeroext 0, i32 noundef %53, i1 noundef zeroext false)
  ret void
}