; Function Attrs: mustprogress uwtable
define void @_ZN4pkpy9SliceExpr5emit_EPNS_15CodeEmitContextE(ptr noundef nonnull readonly align 8 captures(none) dereferenceable(40) %0, ptr noundef %1) unnamed_addr #5 align 2 {
  %3 = getelementptr inbounds nuw i8, ptr %0, i64 16
  %4 = load ptr, ptr %3, align 8
  %.not = icmp eq ptr %4, null
  br i1 %.not, label %9, label %5

5:                                                ; preds = %2
  %6 = load ptr, ptr %4, align 8
  %7 = getelementptr inbounds nuw i8, ptr %6, i64 16
  %8 = load ptr, ptr %7, align 8
  tail call void %8(ptr noundef nonnull align 8 dereferenceable(12) %4, ptr noundef %1)
  br label %13

9:                                                ; preds = %2
  %10 = getelementptr inbounds nuw i8, ptr %0, i64 8
  %11 = load i32, ptr %10, align 8
  %12 = tail call noundef i32 @_ZN4pkpy15CodeEmitContext5emit_ENS_6OpcodeEtib(ptr noundef nonnull align 8 dereferenceable(232) %1, i8 noundef zeroext 7, i16 noundef zeroext 0, i32 noundef %11, i1 noundef zeroext false)
  br label %13

13:                                               ; preds = %9, %5
  %14 = getelementptr inbounds nuw i8, ptr %0, i64 24
  %15 = load ptr, ptr %14, align 8
  %.not8 = icmp eq ptr %15, null
  br i1 %.not8, label %20, label %16

16:                                               ; preds = %13
  %17 = load ptr, ptr %15, align 8
  %18 = getelementptr inbounds nuw i8, ptr %17, i64 16
  %19 = load ptr, ptr %18, align 8
  tail call void %19(ptr noundef nonnull align 8 dereferenceable(12) %15, ptr noundef %1)
  br label %24

20:                                               ; preds = %13
  %21 = getelementptr inbounds nuw i8, ptr %0, i64 8
  %22 = load i32, ptr %21, align 8
  %23 = tail call noundef i32 @_ZN4pkpy15CodeEmitContext5emit_ENS_6OpcodeEtib(ptr noundef nonnull align 8 dereferenceable(232) %1, i8 noundef zeroext 7, i16 noundef zeroext 0, i32 noundef %22, i1 noundef zeroext false)
  br label %24

24:                                               ; preds = %20, %16
  %25 = getelementptr inbounds nuw i8, ptr %0, i64 32
  %26 = load ptr, ptr %25, align 8
  %.not9 = icmp eq ptr %26, null
  br i1 %.not9, label %31, label %27

27:                                               ; preds = %24
  %28 = load ptr, ptr %26, align 8
  %29 = getelementptr inbounds nuw i8, ptr %28, i64 16
  %30 = load ptr, ptr %29, align 8
  tail call void %30(ptr noundef nonnull align 8 dereferenceable(12) %26, ptr noundef %1)
  br label %35

31:                                               ; preds = %24
  %32 = getelementptr inbounds nuw i8, ptr %0, i64 8
  %33 = load i32, ptr %32, align 8
  %34 = tail call noundef i32 @_ZN4pkpy15CodeEmitContext5emit_ENS_6OpcodeEtib(ptr noundef nonnull align 8 dereferenceable(232) %1, i8 noundef zeroext 7, i16 noundef zeroext 0, i32 noundef %33, i1 noundef zeroext false)
  br label %35

35:                                               ; preds = %31, %27
  %36 = getelementptr inbounds nuw i8, ptr %0, i64 8
  %37 = load i32, ptr %36, align 8
  %38 = tail call noundef i32 @_ZN4pkpy15CodeEmitContext5emit_ENS_6OpcodeEtib(ptr noundef nonnull align 8 dereferenceable(232) %1, i8 noundef zeroext 42, i16 noundef zeroext 0, i32 noundef %37, i1 noundef zeroext false)
  ret void
}